; Function Attrs: nounwind uwtable
define ptr @l_Lake_getBinderIds___boxed(ptr noundef %0, ptr noundef %1, ptr noundef %2) local_unnamed_addr #0 {
  %4 = tail call ptr @l_Lean_Syntax_getArgs(ptr noundef %0) #5
  %5 = getelementptr i8, ptr %4, i64 8
  %.val.i = load i64, ptr %5, align 8, !tbaa !13
  %6 = tail call ptr @l_Array_mapMUnsafe_map___at_Lake_getBinderIds___spec__1(i64 noundef %.val.i, i64 noundef 0, ptr noundef %4, ptr noundef %1, ptr noundef %2)
  %7 = ptrtoint ptr %0 to i64
  %8 = and i64 %7, 1
  %.not = icmp eq i64 %8, 0
  br i1 %.not, label %9, label %lean_dec.exit

9:                                                ; preds = %3
  %10 = load i32, ptr %0, align 4, !tbaa !4
  %11 = icmp sgt i32 %10, 1
  br i1 %11, label %12, label %14, !prof !9

12:                                               ; preds = %9
  %13 = add nsw i32 %10, -1
  store i32 %13, ptr %0, align 4, !tbaa !4
  br label %lean_dec.exit

14:                                               ; preds = %9
  %.not.i = icmp eq i32 %10, 0
  br i1 %.not.i, label %lean_dec.exit, label %15

15:                                               ; preds = %14
  tail call void @lean_dec_ref_cold(ptr noundef nonnull %0) #5
  br label %lean_dec.exit

lean_dec.exit:                                    ; preds = %15, %14, %12, %3
  ret ptr %6
}